; Function Attrs: mustprogress uwtable
define void @_ZNK6casadi7BSpline10jac_cachedEv(ptr dead_on_unwind noalias writable sret(%"class.casadi::MX") align 8 %0, ptr noundef nonnull align 8 dereferenceable(256) %1) unnamed_addr #3 align 2 personality ptr @__gxx_personality_v0 {
  %3 = alloca %"class.casadi::MX", align 8
  %4 = alloca %"class.casadi::Matrix", align 8
  %5 = getelementptr inbounds i8, ptr %1, i64 224
  %6 = tail call noundef nonnull align 8 dereferenceable(8) ptr @_ZNK6casadi2MX8sparsityEv(ptr noundef nonnull align 8 dereferenceable(8) %5)
  %7 = tail call noundef zeroext i1 @_ZNK6casadi8Sparsity8is_emptyEb(ptr noundef nonnull align 8 dereferenceable(8) %6, i1 noundef zeroext false)
  br i1 %7, label %8, label %26

8:                                                ; preds = %2
  %9 = getelementptr inbounds i8, ptr %1, i64 32
  %10 = getelementptr inbounds i8, ptr %1, i64 40
  %11 = load ptr, ptr %10, align 8
  %12 = load ptr, ptr %9, align 8
  %.not.i.i.i.not = icmp eq ptr %11, %12
  br i1 %.not.i.i.i.not, label %13, label %_ZNK6casadi6MXNode3depEx.exit

13:                                               ; preds = %8
  tail call void (ptr, ...) @_ZSt24__throw_out_of_range_fmtPKcz(ptr noundef nonnull @.str.51, i64 noundef 0, i64 noundef 0) #26
  unreachable

_ZNK6casadi6MXNode3depEx.exit:                    ; preds = %8
  %14 = getelementptr inbounds i8, ptr %1, i64 232
  call void @_ZN6casadi6MatrixIdEC1ERKSt6vectorIdSaIdEE(ptr noundef nonnull align 8 dereferenceable(40) %4, ptr noundef nonnull align 8 dereferenceable(24) %14)
  invoke void @_ZNK6casadi13BSplineCommon3jacINS_6MatrixIdEEEENS_2MXERKS4_RKT_(ptr dead_on_unwind nonnull writable sret(%"class.casadi::MX") align 8 %3, ptr noundef nonnull align 8 dereferenceable(232) %1, ptr noundef nonnull align 8 dereferenceable(8) %12, ptr noundef nonnull align 8 dereferenceable(40) %4)
          to label %15 unwind label %21

15:                                               ; preds = %_ZNK6casadi6MXNode3depEx.exit
  %16 = invoke noundef nonnull align 8 dereferenceable(8) ptr @_ZN6casadi12SharedObjectaSERKS0_(ptr noundef nonnull align 8 dereferenceable(8) %5, ptr noundef nonnull align 8 dereferenceable(8) %3)
          to label %_ZN6casadi2MXaSERKS0_.exit unwind label %23

_ZN6casadi2MXaSERKS0_.exit:                       ; preds = %15
  call void @_ZN6casadi2MXD1Ev(ptr noundef nonnull align 8 dereferenceable(8) %3) #23
  %17 = getelementptr inbounds i8, ptr %4, i64 16
  %18 = load ptr, ptr %17, align 8
  %.not.i.i.i.i = icmp eq ptr %18, null
  br i1 %.not.i.i.i.i, label %_ZN6casadi6MatrixIdED2Ev.exit, label %19

19:                                               ; preds = %_ZN6casadi2MXaSERKS0_.exit
  call void @_ZdlPv(ptr noundef nonnull %18) #25
  br label %_ZN6casadi6MatrixIdED2Ev.exit

_ZN6casadi6MatrixIdED2Ev.exit:                    ; preds = %_ZN6casadi2MXaSERKS0_.exit, %19
  %20 = getelementptr inbounds i8, ptr %4, i64 8
  call void @_ZN6casadi12SharedObjectD2Ev(ptr noundef nonnull align 8 dereferenceable(8) %20) #23
  br label %26

21:                                               ; preds = %_ZNK6casadi6MXNode3depEx.exit
  %22 = landingpad { ptr, i32 }
          cleanup
  br label %25

23:                                               ; preds = %15
  %24 = landingpad { ptr, i32 }
          cleanup
  call void @_ZN6casadi2MXD1Ev(ptr noundef nonnull align 8 dereferenceable(8) %3) #23
  br label %25

25:                                               ; preds = %23, %21
  %.pn = phi { ptr, i32 } [ %24, %23 ], [ %22, %21 ]
  call void @_ZN6casadi6MatrixIdED2Ev(ptr noundef nonnull align 8 dereferenceable(40) %4) #23
  resume { ptr, i32 } %.pn

26:                                               ; preds = %_ZN6casadi6MatrixIdED2Ev.exit, %2
  call void @_ZN6casadi12SharedObjectC2ERKS0_(ptr noundef nonnull align 8 dereferenceable(8) %0, ptr noundef nonnull align 8 dereferenceable(8) %5)
  ret void
}